; Function Attrs: nounwind uwtable
define range(i32 -40, 1) i32 @CVodeGetStgrSensNumNonlinSolvIters(ptr noundef %0, ptr noundef writeonly captures(none) %1) local_unnamed_addr #0 {
  %3 = icmp eq ptr %0, null
  br i1 %3, label %4, label %5

4:                                                ; preds = %2
  tail call void (ptr, i32, ptr, ptr, ptr, ...) @cvProcessError(ptr noundef null, i32 noundef -21, ptr noundef nonnull @.str, ptr noundef nonnull @.str.80, ptr noundef nonnull @.str.2) #6
  br label %.loopexit

5:                                                ; preds = %2
  %6 = getelementptr inbounds nuw i8, ptr %0, i64 140
  %7 = load i32, ptr %6, align 4, !tbaa !54
  %8 = getelementptr inbounds nuw i8, ptr %0, i64 136
  %9 = load i32, ptr %8, align 8, !tbaa !95
  %10 = icmp eq i32 %9, 0
  br i1 %10, label %11, label %12

11:                                               ; preds = %5
  tail call void (ptr, i32, ptr, ptr, ptr, ...) @cvProcessError(ptr noundef nonnull %0, i32 noundef -40, ptr noundef nonnull @.str, ptr noundef nonnull @.str.80, ptr noundef nonnull @.str.36) #6
  br label %.loopexit

12:                                               ; preds = %5
  %13 = getelementptr inbounds nuw i8, ptr %0, i64 144
  %14 = load i32, ptr %13, align 8, !tbaa !104
  %15 = icmp eq i32 %14, 3
  %16 = icmp sgt i32 %7, 0
  %or.cond = select i1 %15, i1 %16, i1 false
  br i1 %or.cond, label %.lr.ph, label %.loopexit

.lr.ph:                                           ; preds = %12
  %17 = getelementptr inbounds nuw i8, ptr %0, i64 1528
  %18 = load ptr, ptr %17, align 8, !tbaa !105
  %wide.trip.count = zext nneg i32 %7 to i64
  br label %19

19:                                               ; preds = %.lr.ph, %19
  %indvars.iv = phi i64 [ 0, %.lr.ph ], [ %indvars.iv.next, %19 ]
  %20 = getelementptr inbounds nuw i64, ptr %18, i64 %indvars.iv
  %21 = load i64, ptr %20, align 8, !tbaa !65
  %22 = getelementptr inbounds nuw i64, ptr %1, i64 %indvars.iv
  store i64 %21, ptr %22, align 8, !tbaa !65
  %indvars.iv.next = add nuw nsw i64 %indvars.iv, 1
  %exitcond.not = icmp eq i64 %indvars.iv.next, %wide.trip.count
  br i1 %exitcond.not, label %.loopexit, label %19, !llvm.loop !106

.loopexit:                                        ; preds = %19, %12, %11, %4
  %.0 = phi i32 [ -21, %4 ], [ -40, %11 ], [ 0, %12 ], [ 0, %19 ]
  ret i32 %.0
}